target datalayout = "e-m:e-p270:32:32-p271:32:32-p272:64:64-i64:64-i128:128-f80:128-n8:16:32:64-S128"
target triple = "x86_64-pc-linux-gnu"

; Function Attrs: nounwind uwtable
define i32 @firstShiftWithOneBit(i64 noundef %0, i32 noundef %1) #0 {
  %3 = alloca i32, align 4
  %4 = alloca i64, align 8
  %5 = alloca i32, align 4
  %6 = alloca i32, align 4
  %7 = alloca i32, align 4
  store i64 %0, ptr %4, align 8, !tbaa !18
  store i32 %1, ptr %5, align 4, !tbaa !8
  call void @llvm.lifetime.start.p0(i64 4, ptr %6) #7
  store i32 0, ptr %6, align 4, !tbaa !8
  %8 = load i32, ptr %5, align 4, !tbaa !8
  %9 = icmp eq i32 %8, 16
  br i1 %9, label %10, label %11

10:                                               ; preds = %2
  store i32 0, ptr %3, align 4
  store i32 1, ptr %7, align 4
  br label %68

11:                                               ; preds = %2
  %12 = load i64, ptr %4, align 8, !tbaa !18
  %13 = icmp uge i64 %12, 4294967296
  br i1 %13, label %14, label %19

14:                                               ; preds = %11
  %15 = load i32, ptr %6, align 4, !tbaa !8
  %16 = add nsw i32 %15, 32
  store i32 %16, ptr %6, align 4, !tbaa !8
  %17 = load i64, ptr %4, align 8, !tbaa !18
  %18 = lshr i64 %17, 32
  store i64 %18, ptr %4, align 8, !tbaa !18
  br label %19

19:                                               ; preds = %14, %11
  %20 = load i32, ptr %5, align 4, !tbaa !8
  %21 = icmp eq i32 %20, 8
  br i1 %21, label %22, label %26

22:                                               ; preds = %19
  %23 = load i32, ptr %6, align 4, !tbaa !8
  %24 = sub nsw i32 64, %23
  %25 = sdiv i32 %24, 32
  store i32 %25, ptr %3, align 4
  store i32 1, ptr %7, align 4
  br label %68

26:                                               ; preds = %19
  %27 = load i64, ptr %4, align 8, !tbaa !18
  %28 = icmp uge i64 %27, 65536
  br i1 %28, label %29, label %34

29:                                               ; preds = %26
  %30 = load i32, ptr %6, align 4, !tbaa !8
  %31 = add nsw i32 %30, 16
  store i32 %31, ptr %6, align 4, !tbaa !8
  %32 = load i64, ptr %4, align 8, !tbaa !18
  %33 = lshr i64 %32, 16
  store i64 %33, ptr %4, align 8, !tbaa !18
  br label %34

34:                                               ; preds = %29, %26
  %35 = load i32, ptr %5, align 4, !tbaa !8
  %36 = icmp eq i32 %35, 4
  br i1 %36, label %37, label %41

37:                                               ; preds = %34
  %38 = load i32, ptr %6, align 4, !tbaa !8
  %39 = sub nsw i32 64, %38
  %40 = sdiv i32 %39, 16
  store i32 %40, ptr %3, align 4
  store i32 1, ptr %7, align 4
  br label %68

41:                                               ; preds = %34
  %42 = load i64, ptr %4, align 8, !tbaa !18
  %43 = icmp uge i64 %42, 256
  br i1 %43, label %44, label %49

44:                                               ; preds = %41
  %45 = load i32, ptr %6, align 4, !tbaa !8
  %46 = add nsw i32 %45, 8
  store i32 %46, ptr %6, align 4, !tbaa !8
  %47 = load i64, ptr %4, align 8, !tbaa !18
  %48 = lshr i64 %47, 8
  store i64 %48, ptr %4, align 8, !tbaa !18
  br label %49

49:                                               ; preds = %44, %41
  %50 = load i32, ptr %5, align 4, !tbaa !8
  %51 = icmp eq i32 %50, 2
  br i1 %51, label %52, label %56

52:                                               ; preds = %49
  %53 = load i32, ptr %6, align 4, !tbaa !8
  %54 = sub nsw i32 64, %53
  %55 = sdiv i32 %54, 8
  store i32 %55, ptr %3, align 4
  store i32 1, ptr %7, align 4
  br label %68

56:                                               ; preds = %49
  %57 = load i64, ptr %4, align 8, !tbaa !18
  %58 = icmp uge i64 %57, 16
  br i1 %58, label %59, label %64

59:                                               ; preds = %56
  %60 = load i32, ptr %6, align 4, !tbaa !8
  %61 = add nsw i32 %60, 4
  store i32 %61, ptr %6, align 4, !tbaa !8
  %62 = load i64, ptr %4, align 8, !tbaa !18
  %63 = lshr i64 %62, 4
  store i64 %63, ptr %4, align 8, !tbaa !18
  br label %64

64:                                               ; preds = %59, %56
  %65 = load i32, ptr %6, align 4, !tbaa !8
  %66 = sub nsw i32 64, %65
  %67 = sdiv i32 %66, 4
  store i32 %67, ptr %3, align 4
  store i32 1, ptr %7, align 4
  br label %68

68:                                               ; preds = %64, %52, %37, %22, %10
  call void @llvm.lifetime.end.p0(i64 4, ptr %6) #7
  %69 = load i32, ptr %3, align 4
  ret i32 %69
}

; Function Attrs: nounwind uwtable
define i32 @minTemp3_fast(ptr noundef %0, i32 noundef %1, i32 noundef %2, i32 noundef %3, i32 noundef %4, i32 noundef %5, ptr noundef %6) #0 {
  %8 = alloca i32, align 4
  %9 = alloca ptr, align 8
  %10 = alloca i32, align 4
  %11 = alloca i32, align 4
  %12 = alloca i32, align 4
  %13 = alloca i32, align 4
  %14 = alloca i32, align 4
  %15 = alloca ptr, align 8
  %16 = alloca i32, align 4
  %17 = alloca i32, align 4
  %18 = alloca i64, align 8
  %19 = alloca i32, align 4
  store ptr %0, ptr %9, align 8, !tbaa !3
  store i32 %1, ptr %10, align 4, !tbaa !8
  store i32 %2, ptr %11, align 4, !tbaa !8
  store i32 %3, ptr %12, align 4, !tbaa !8
  store i32 %4, ptr %13, align 4, !tbaa !8
  store i32 %5, ptr %14, align 4, !tbaa !8
  store ptr %6, ptr %15, align 8, !tbaa !12
  call void @llvm.lifetime.start.p0(i64 4, ptr %16) #7
  call void @llvm.lifetime.start.p0(i64 4, ptr %17) #7
  %20 = load i32, ptr %10, align 4, !tbaa !8
  %21 = shl i32 1, %20
  store i32 %21, ptr %17, align 4, !tbaa !8
  call void @llvm.lifetime.start.p0(i64 8, ptr %18) #7
  %22 = load i32, ptr %11, align 4, !tbaa !8
  store i32 %22, ptr %16, align 4, !tbaa !8
  br label %23

23:                                               ; preds = %116, %7
  %24 = load i32, ptr %16, align 4, !tbaa !8
  %25 = load i32, ptr %12, align 4, !tbaa !8
  %26 = icmp sge i32 %24, %25
  br i1 %26, label %27, label %119

27:                                               ; preds = %23
  %28 = load ptr, ptr %9, align 8, !tbaa !3
  %29 = load i32, ptr %16, align 4, !tbaa !8
  %30 = sext i32 %29 to i64
  %31 = getelementptr inbounds i64, ptr %28, i64 %30
  %32 = load i64, ptr %31, align 8, !tbaa !18
  %33 = load i32, ptr %10, align 4, !tbaa !8
  %34 = sext i32 %33 to i64
  %35 = getelementptr inbounds [5 x [4 x i64]], ptr @SFmask, i64 0, i64 %34
  %36 = load i32, ptr %13, align 4, !tbaa !8
  %37 = sext i32 %36 to i64
  %38 = getelementptr inbounds [4 x i64], ptr %35, i64 0, i64 %37
  %39 = load i64, ptr %38, align 8, !tbaa !18
  %40 = and i64 %32, %39
  %41 = load i32, ptr %13, align 4, !tbaa !8
  %42 = load i32, ptr %17, align 4, !tbaa !8
  %43 = mul nsw i32 %41, %42
  %44 = zext i32 %43 to i64
  %45 = shl i64 %40, %44
  %46 = load ptr, ptr %9, align 8, !tbaa !3
  %47 = load i32, ptr %16, align 4, !tbaa !8
  %48 = sext i32 %47 to i64
  %49 = getelementptr inbounds i64, ptr %46, i64 %48
  %50 = load i64, ptr %49, align 8, !tbaa !18
  %51 = load i32, ptr %10, align 4, !tbaa !8
  %52 = sext i32 %51 to i64
  %53 = getelementptr inbounds [5 x [4 x i64]], ptr @SFmask, i64 0, i64 %52
  %54 = load i32, ptr %14, align 4, !tbaa !8
  %55 = sext i32 %54 to i64
  %56 = getelementptr inbounds [4 x i64], ptr %53, i64 0, i64 %55
  %57 = load i64, ptr %56, align 8, !tbaa !18
  %58 = and i64 %50, %57
  %59 = load i32, ptr %14, align 4, !tbaa !8
  %60 = load i32, ptr %17, align 4, !tbaa !8
  %61 = mul nsw i32 %59, %60
  %62 = zext i32 %61 to i64
  %63 = shl i64 %58, %62
  %64 = xor i64 %45, %63
  store i64 %64, ptr %18, align 8, !tbaa !18
  %65 = load i64, ptr %18, align 8, !tbaa !18
  %66 = icmp eq i64 %65, 0
  br i1 %66, label %67, label %68

67:                                               ; preds = %27
  br label %116

68:                                               ; preds = %27
  %69 = load i32, ptr %16, align 4, !tbaa !8
  %70 = mul nsw i32 %69, 100
  %71 = add nsw i32 %70, 20
  %72 = load i64, ptr %18, align 8, !tbaa !18
  %73 = load i32, ptr %17, align 4, !tbaa !8
  %74 = call i32 @firstShiftWithOneBit(i64 noundef %72, i32 noundef %73)
  %75 = sub nsw i32 %71, %74
  %76 = load ptr, ptr %15, align 8, !tbaa !12
  store i32 %75, ptr %76, align 4, !tbaa !8
  %77 = load ptr, ptr %9, align 8, !tbaa !3
  %78 = load i32, ptr %16, align 4, !tbaa !8
  %79 = sext i32 %78 to i64
  %80 = getelementptr inbounds i64, ptr %77, i64 %79
  %81 = load i64, ptr %80, align 8, !tbaa !18
  %82 = load i32, ptr %10, align 4, !tbaa !8
  %83 = sext i32 %82 to i64
  %84 = getelementptr inbounds [5 x [4 x i64]], ptr @SFmask, i64 0, i64 %83
  %85 = load i32, ptr %13, align 4, !tbaa !8
  %86 = sext i32 %85 to i64
  %87 = getelementptr inbounds [4 x i64], ptr %84, i64 0, i64 %86
  %88 = load i64, ptr %87, align 8, !tbaa !18
  %89 = and i64 %81, %88
  %90 = load i32, ptr %13, align 4, !tbaa !8
  %91 = load i32, ptr %17, align 4, !tbaa !8
  %92 = mul nsw i32 %90, %91
  %93 = zext i32 %92 to i64
  %94 = shl i64 %89, %93
  %95 = load ptr, ptr %9, align 8, !tbaa !3
  %96 = load i32, ptr %16, align 4, !tbaa !8
  %97 = sext i32 %96 to i64
  %98 = getelementptr inbounds i64, ptr %95, i64 %97
  %99 = load i64, ptr %98, align 8, !tbaa !18
  %100 = load i32, ptr %10, align 4, !tbaa !8
  %101 = sext i32 %100 to i64
  %102 = getelementptr inbounds [5 x [4 x i64]], ptr @SFmask, i64 0, i64 %101
  %103 = load i32, ptr %14, align 4, !tbaa !8
  %104 = sext i32 %103 to i64
  %105 = getelementptr inbounds [4 x i64], ptr %102, i64 0, i64 %104
  %106 = load i64, ptr %105, align 8, !tbaa !18
  %107 = and i64 %99, %106
  %108 = load i32, ptr %14, align 4, !tbaa !8
  %109 = load i32, ptr %17, align 4, !tbaa !8
  %110 = mul nsw i32 %108, %109
  %111 = zext i32 %110 to i64
  %112 = shl i64 %107, %111
  %113 = icmp ule i64 %94, %112
  br i1 %113, label %114, label %115

114:                                              ; preds = %68
  store i32 0, ptr %8, align 4
  store i32 1, ptr %19, align 4
  br label %121

115:                                              ; preds = %68
  store i32 1, ptr %8, align 4
  store i32 1, ptr %19, align 4
  br label %121

116:                                              ; preds = %67
  %117 = load i32, ptr %16, align 4, !tbaa !8
  %118 = add nsw i32 %117, -1
  store i32 %118, ptr %16, align 4, !tbaa !8
  br label %23, !llvm.loop !24

119:                                              ; preds = %23
  %120 = load ptr, ptr %15, align 8, !tbaa !12
  store i32 0, ptr %120, align 4, !tbaa !8
  store i32 0, ptr %8, align 4
  store i32 1, ptr %19, align 4
  br label %121

121:                                              ; preds = %119, %115, %114
  call void @llvm.lifetime.end.p0(i64 8, ptr %18) #7
  call void @llvm.lifetime.end.p0(i64 4, ptr %17) #7
  call void @llvm.lifetime.end.p0(i64 4, ptr %16) #7
  %122 = load i32, ptr %8, align 4
  ret i32 %122
}