; Function Attrs: nofree norecurse nosync nounwind memory(argmem: readwrite) uwtable
define range(i32 0, 2) i32 @minTemp3_fast(ptr noundef readonly captures(none) %0, i32 noundef %1, i32 noundef %2, i32 noundef %3, i32 noundef %4, i32 noundef %5, ptr noundef writeonly captures(none) %6) local_unnamed_addr #5 {
  %.not40 = icmp slt i32 %2, %3
  br i1 %.not40, label %._crit_edge, label %.lr.ph

.lr.ph:                                           ; preds = %7
  %8 = sext i32 %1 to i64
  %9 = sext i32 %4 to i64
  %10 = getelementptr inbounds [5 x [4 x i64]], ptr @SFmask, i64 0, i64 %8, i64 %9
  %11 = load i64, ptr %10, align 8, !tbaa !11
  %12 = shl i32 %4, %1
  %13 = zext nneg i32 %12 to i64
  %14 = sext i32 %5 to i64
  %15 = getelementptr inbounds [5 x [4 x i64]], ptr @SFmask, i64 0, i64 %8, i64 %14
  %16 = load i64, ptr %15, align 8, !tbaa !11
  %17 = shl i32 %5, %1
  %18 = zext nneg i32 %17 to i64
  %19 = sext i32 %2 to i64
  %20 = sext i32 %3 to i64
  br label %21

21:                                               ; preds = %.lr.ph, %60
  %indvars.iv = phi i64 [ %19, %.lr.ph ], [ %indvars.iv.next, %60 ]
  %22 = getelementptr inbounds i64, ptr %0, i64 %indvars.iv
  %23 = load i64, ptr %22, align 8, !tbaa !11
  %24 = and i64 %11, %23
  %25 = shl i64 %24, %13
  %26 = and i64 %16, %23
  %27 = shl i64 %26, %18
  %28 = icmp eq i64 %25, %27
  br i1 %28, label %60, label %29

29:                                               ; preds = %21
  %30 = trunc nsw i64 %indvars.iv to i32
  %31 = xor i64 %27, %25
  %32 = mul nsw i32 %30, 100
  %33 = add nsw i32 %32, 20
  %34 = icmp eq i32 %1, 4
  br i1 %34, label %firstShiftWithOneBit.exit, label %35

35:                                               ; preds = %29
  %36 = icmp ugt i64 %31, 4294967295
  %spec.select28.i = select i1 %36, i32 32, i32 0
  %37 = icmp eq i32 %1, 3
  br i1 %37, label %38, label %41

38:                                               ; preds = %35
  %39 = sub nuw nsw i32 64, %spec.select28.i
  %40 = lshr exact i32 %39, 5
  br label %firstShiftWithOneBit.exit

41:                                               ; preds = %35
  %42 = lshr i64 %31, 32
  %spec.select.i = select i1 %36, i64 %42, i64 %31
  %43 = icmp samesign ugt i64 %spec.select.i, 65535
  %44 = or disjoint i32 %spec.select28.i, 16
  %.1.i = select i1 %43, i32 %44, i32 %spec.select28.i
  %45 = icmp eq i32 %1, 2
  br i1 %45, label %46, label %47

46:                                               ; preds = %41
  %.lhs.trunc.i = sub nuw nsw i32 64, %.1.i
  %.zext.i = lshr exact i32 %.lhs.trunc.i, 4
  br label %firstShiftWithOneBit.exit

47:                                               ; preds = %41
  %48 = lshr i64 %spec.select.i, 16
  %.123.i = select i1 %43, i64 %48, i64 %spec.select.i
  %49 = icmp samesign ugt i64 %.123.i, 255
  %50 = or disjoint i32 %.1.i, 8
  %.2.i = select i1 %49, i32 %50, i32 %.1.i
  %51 = icmp eq i32 %1, 1
  br i1 %51, label %52, label %54

52:                                               ; preds = %47
  %.lhs.trunc30.i = sub nuw nsw i32 64, %.2.i
  %53 = lshr exact i32 %.lhs.trunc30.i, 3
  br label %firstShiftWithOneBit.exit

54:                                               ; preds = %47
  %55 = lshr i64 %.123.i, 8
  %.224.i = select i1 %49, i64 %55, i64 %.123.i
  %56 = icmp samesign ugt i64 %.224.i, 15
  %57 = or disjoint i32 %.2.i, 4
  %spec.select29.i = select i1 %56, i32 %57, i32 %.2.i
  %.lhs.trunc32.i = sub nuw nsw i32 64, %spec.select29.i
  %58 = lshr i32 %.lhs.trunc32.i, 2
  br label %firstShiftWithOneBit.exit

firstShiftWithOneBit.exit:                        ; preds = %29, %38, %46, %52, %54
  %.021.i = phi i32 [ %40, %38 ], [ %.zext.i, %46 ], [ %53, %52 ], [ %58, %54 ], [ 0, %29 ]
  %59 = sub nsw i32 %33, %.021.i
  store i32 %59, ptr %6, align 4, !tbaa !6
  %.not37 = icmp ugt i64 %25, %27
  %. = zext i1 %.not37 to i32
  br label %61

60:                                               ; preds = %21
  %indvars.iv.next = add nsw i64 %indvars.iv, -1
  %.not.not = icmp sgt i64 %indvars.iv, %20
  br i1 %.not.not, label %21, label %._crit_edge, !llvm.loop !17

._crit_edge:                                      ; preds = %60, %7
  store i32 0, ptr %6, align 4, !tbaa !6
  br label %61

61:                                               ; preds = %firstShiftWithOneBit.exit, %._crit_edge
  %.0 = phi i32 [ 0, %._crit_edge ], [ %., %firstShiftWithOneBit.exit ]
  ret i32 %.0
}